; Function Attrs: nounwind uwtable
define hidden void @jStringToCKUTF8CharArray(ptr noundef %0, ptr noundef %1, ptr nocapture noundef writeonly %2, ptr nocapture noundef writeonly %3) local_unnamed_addr #0 {
  %5 = alloca i8, align 1
  %6 = icmp eq ptr %1, null
  br i1 %6, label %7, label %8

7:                                                ; preds = %4
  store ptr null, ptr %2, align 8
  store i64 0, ptr %3, align 8
  br label %p11ThrowOutOfMemoryError.exit

8:                                                ; preds = %4
  %9 = load ptr, ptr %0, align 8
  %10 = getelementptr inbounds i8, ptr %9, i64 1352
  %11 = load ptr, ptr %10, align 8
  %12 = call ptr %11(ptr noundef nonnull %0, ptr noundef nonnull %1, ptr noundef nonnull %5) #15
  %13 = icmp eq ptr %12, null
  br i1 %13, label %p11ThrowOutOfMemoryError.exit, label %14

14:                                               ; preds = %8
  %15 = call i64 @strlen(ptr noundef nonnull dereferenceable(1) %12) #17
  store i64 %15, ptr %3, align 8
  %16 = add i64 %15, 1
  %17 = call noalias ptr @calloc(i64 noundef %16, i64 noundef 1) #16
  store ptr %17, ptr %2, align 8
  %18 = icmp eq ptr %17, null
  br i1 %18, label %19, label %32

19:                                               ; preds = %14
  %20 = load ptr, ptr %0, align 8
  %21 = getelementptr inbounds i8, ptr %20, i64 1360
  %22 = load ptr, ptr %21, align 8
  call void %22(ptr noundef nonnull %0, ptr noundef nonnull %1, ptr noundef nonnull %12) #15
  %23 = load ptr, ptr %0, align 8
  %24 = getelementptr inbounds i8, ptr %23, i64 48
  %25 = load ptr, ptr %24, align 8
  %26 = call ptr %25(ptr noundef nonnull %0, ptr noundef nonnull @.str.5) #15
  %.not.i.i = icmp eq ptr %26, null
  br i1 %.not.i.i, label %p11ThrowOutOfMemoryError.exit, label %27

27:                                               ; preds = %19
  %28 = load ptr, ptr %0, align 8
  %29 = getelementptr inbounds i8, ptr %28, i64 112
  %30 = load ptr, ptr %29, align 8
  %31 = call i32 %30(ptr noundef nonnull %0, ptr noundef nonnull %26, ptr noundef null) #15
  br label %p11ThrowOutOfMemoryError.exit

32:                                               ; preds = %14
  %33 = call ptr @strcpy(ptr noundef nonnull dereferenceable(1) %17, ptr noundef nonnull dereferenceable(1) %12) #15
  %34 = load ptr, ptr %0, align 8
  %35 = getelementptr inbounds i8, ptr %34, i64 1360
  %36 = load ptr, ptr %35, align 8
  call void %36(ptr noundef nonnull %0, ptr noundef nonnull %1, ptr noundef nonnull %12) #15
  br label %p11ThrowOutOfMemoryError.exit

p11ThrowOutOfMemoryError.exit:                    ; preds = %27, %19, %8, %32, %7
  ret void
}